ccopy_reg
_reconstructor
p0
(csklearn.grid_search
GridSearchCV
p1
c__builtin__
object
p2
Ntp3
Rp4
(dp5
S'scoring'
p6
NsS'n_jobs'
p7
I1
sS'verbose'
p8
I0
sS'fit_params'
p9
(dp10
sS'refit'
p11
I01
sS'iid'
p12
I01
sS'estimator'
p13
g0
(csklearn.tree.tree
DecisionTreeClassifier
p14
g2
Ntp15
Rp16
(dp17
S'presort'
p18
I00
sS'splitter'
p19
S'best'
p20
sS'tree_'
p21
NsS'n_features_'
p22
NsS'n_outputs_'
p23
NsS'n_classes_'
p24
NsS'random_state'
p25
NsS'classes_'
p26
NsS'max_features_'
p27
NsS'min_samples_leaf'
p28
I1
sS'max_features'
p29
NsS'min_weight_fraction_leaf'
p30
F0.0
sS'criterion'
p31
S'gini'
p32
sS'max_leaf_nodes'
p33
NsS'min_samples_split'
p34
I2
sS'max_depth'
p35
NsS'class_weight'
p36
NsbsS'error_score'
p37
S'raise'
p38
sS'pre_dispatch'
p39
S'2*n_jobs'
p40
sS'param_grid'
p41
(dp42
g34
(lp43
I2
aI3
aI4
aI5
aI6
aI7
aI8
assS'cv'
p44
I3
sb.